; Function Attrs: mustprogress nofree nosync nounwind memory(readwrite, inaccessiblemem: none) uwtable
define hidden void @_Z17luaC_barriertableP9lua_StateP5TableP8GCObject(ptr nocapture noundef readonly %0, ptr noundef %1, ptr noundef %2) local_unnamed_addr #2 {
  %4 = getelementptr inbounds i8, ptr %0, i64 24
  %5 = load ptr, ptr %4, align 8
  %6 = getelementptr inbounds i8, ptr %5, i64 33
  %7 = load i8, ptr %6, align 1
  %8 = icmp eq i8 %7, 2
  br i1 %8, label %9, label %10

9:                                                ; preds = %3
  tail call fastcc void @_ZL16reallymarkobjectP12global_StateP8GCObject(ptr noundef nonnull %5, ptr noundef %2)
  br label %17

10:                                               ; preds = %3
  %11 = getelementptr inbounds i8, ptr %1, i64 1
  %12 = load i8, ptr %11, align 1
  %13 = and i8 %12, -5
  store i8 %13, ptr %11, align 1
  %14 = getelementptr inbounds i8, ptr %5, i64 48
  %15 = load ptr, ptr %14, align 8
  %16 = getelementptr inbounds i8, ptr %1, i64 40
  store ptr %15, ptr %16, align 8
  store ptr %1, ptr %14, align 8
  br label %17

17:                                               ; preds = %10, %9
  ret void
}